ccopy_reg
_reconstructor
p1
(crequests.structures
CaseInsensitiveDict
p2
c__builtin__
object
p3
NtRp4
(dp5
S'_store'
p6
curllib3.packages.ordered_dict
OrderedDict
p7
((lp8
(lp9
S'connection'
p10
a(S'Connection'
p11
S'keep-alive'
p12
tp13
aa(lp14
S'accept-encoding'
p15
a(S'Accept-Encoding'
p16
S'gzip, deflate'
p17
tp18
aa(lp19
S'accept'
p20
a(S'Accept'
p21
S'*/*'
p22
tp23
aa(lp24
S'user-agent'
p25
a(S'User-Agent'
p26
S'python-requests/2.18.1'
tp27
aatRp28
sb.(dp1
S'l_n_c'
p2
S'1'
sS'q_c1'
p3
S'b4c9ec46d581490ea5f80da77005b931|1501651578000|1501651578000'
p4
sS'z_c0'
p5
S'"QUFBQVlmSkZBQUFYQUFBQVlRSlZUWVR2cUZsSFdQVzVEN2JLTzdLT0pCd0lBMnJpNDJ3d09BPT0=|1501651588|94a69665610e61f2b0d09489e4724787486187a5"'
p6
sS'aliyungf_tc'
p7
S'AQAAAPj4xzGGGwgA5+Qnt6QEsSM2cnJ6'
p8
sS'_xsrf'
p9
S'7a87ce13ed91722deee7ca85181176e2'
p10
sS'r_cap_id'
p11
S'"NjE5ZDRlMzQ5OTA2NDFlMmJmNThjNzFiYTMwODEyZDc=|1501651578|488c24d16098992c70491d0d17c9a40769cd1890"'
p12
sS'cap_id'
p13
S'"MWE1YWI3NDg1YjlhNDlmODg4NWFmM2RjNzU1ZWU4MDg=|1501651578|160f6c14e1da76c6a1e408a2b0e61e0c7ba9cd06"'
p14
s.